target datalayout = "e-m:e-p270:32:32-p271:32:32-p272:64:64-i64:64-i128:128-f80:128-n8:16:32:64-S128"
target triple = "x86_64-pc-linux-gnu"

%struct._object = type { i64, ptr }
%"class.nanobind::handle" = type { ptr }
%class.anon.880 = type { i64 }
%"struct.nanobind::detail::tuple.207" = type { %"struct.nanobind::detail::type_caster.208" }
%"struct.nanobind::detail::type_caster.208" = type { i32 }
%"struct.nanobind::detail::type_caster.877" = type { %"struct.nanobind::detail::type_caster_base.878" }
%"struct.nanobind::detail::type_caster_base.878" = type { ptr }
%class.anon.888 = type { i8 }
%struct.capture.887 = type { %class.anon.880 }
%"struct.nanobind::detail::tuple.890" = type { %"struct.nanobind::detail::tuple.207", %"struct.nanobind::detail::type_caster.877" }

@_Py_NoneStruct = external global %struct._object, align 8

; Function Attrs: alwaysinline mustprogress nounwind optsize uwtable
define linkonce_odr hidden noundef nonnull align 4 dereferenceable(4) ptr @_ZN8nanobind6detail5tupleIJNS0_11type_casterIiiEEEE3getILm0EEERDav(ptr noundef nonnull align 4 dereferenceable(4) %0) #5 comdat align 2 {
  %2 = alloca ptr, align 8
  store ptr %0, ptr %2, align 8, !tbaa !450
  %3 = load ptr, ptr %2, align 8
  %4 = getelementptr inbounds nuw %"struct.nanobind::detail::tuple.207", ptr %3, i32 0, i32 0
  ret ptr %4
}

; Function Attrs: alwaysinline mustprogress nounwind optsize uwtable
define linkonce_odr hidden noundef ptr @_ZNK8nanobind6handle3ptrEv(ptr noundef nonnull align 8 dereferenceable(8) %0) #5 comdat align 2 {
  %2 = alloca ptr, align 8
  store ptr %0, ptr %2, align 8, !tbaa !28
  %3 = load ptr, ptr %2, align 8
  %4 = getelementptr inbounds nuw %"class.nanobind::handle", ptr %3, i32 0, i32 0
  %5 = load ptr, ptr %4, align 8, !tbaa !30
  ret ptr %5
}

; Function Attrs: inlinehint mustprogress nounwind optsize uwtable
define internal void @_ZL10_Py_INCREFP7_object(ptr noundef %0) #12 {
  %2 = alloca ptr, align 8
  store ptr %0, ptr %2, align 8, !tbaa !21
  %3 = load ptr, ptr %2, align 8, !tbaa !21
  %4 = getelementptr inbounds nuw %struct._object, ptr %3, i32 0, i32 0
  %5 = load i64, ptr %4, align 8, !tbaa !111
  %6 = add nsw i64 %5, 1
  store i64 %6, ptr %4, align 8, !tbaa !111
  ret void
}

; Function Attrs: inlinehint mustprogress nounwind optsize uwtable
define internal void @_ZZN8nanobind6class_IZL30nanobind_init_test_classes_extRNS_7module_EE12BoundDerivedJEE6def_rwIZL30nanobind_init_test_classes_extS2_E10HiddenBaseiJEEERS4_PKcMT_T0_DpRKT1_ENKUlRS3_OiE_clESH_SI_(ptr noundef nonnull align 8 dereferenceable(8) %0, ptr noundef nonnull align 8 dereferenceable(12) %1, ptr noundef nonnull align 4 dereferenceable(4) %2) #12 align 2 {
  %4 = alloca ptr, align 8
  %5 = alloca ptr, align 8
  %6 = alloca ptr, align 8
  store ptr %0, ptr %4, align 8, !tbaa !23
  store ptr %1, ptr %5, align 8, !tbaa !1576
  store ptr %2, ptr %6, align 8, !tbaa !107
  %7 = load ptr, ptr %4, align 8
  %8 = load ptr, ptr %6, align 8, !tbaa !107
  %9 = load i32, ptr %8, align 4, !tbaa !26
  %10 = load ptr, ptr %5, align 8, !tbaa !1576
  %11 = getelementptr inbounds i8, ptr %10, i64 8
  %12 = getelementptr inbounds nuw %class.anon.880, ptr %7, i32 0, i32 0
  %13 = load i64, ptr %12, align 8, !tbaa !309
  %14 = getelementptr inbounds i8, ptr %11, i64 %13
  store i32 %9, ptr %14, align 4, !tbaa !26
  ret void
}

; Function Attrs: mustprogress nounwind optsize uwtable
define linkonce_odr hidden noundef nonnull align 4 dereferenceable(4) ptr @_ZN8nanobind6detail11type_casterIiiEcvOiEv(ptr noundef nonnull align 4 dereferenceable(4) %0) #1 comdat align 2 {
  %2 = alloca ptr, align 8
  store ptr %0, ptr %2, align 8, !tbaa !448
  %3 = load ptr, ptr %2, align 8
  %4 = getelementptr inbounds nuw %"struct.nanobind::detail::type_caster.208", ptr %3, i32 0, i32 0
  ret ptr %4
}

; Function Attrs: mustprogress optsize uwtable
define internal noundef nonnull align 8 dereferenceable(12) ptr @_ZN8nanobind6detail16type_caster_baseIZL30nanobind_init_test_classes_extRNS_7module_EE12BoundDerivedEcvRS4_Ev(ptr noundef nonnull align 8 dereferenceable(8) %0) #3 align 2 {
  %2 = alloca ptr, align 8
  store ptr %0, ptr %2, align 8, !tbaa !1592
  %3 = load ptr, ptr %2, align 8
  %4 = getelementptr inbounds nuw %"struct.nanobind::detail::type_caster_base.878", ptr %3, i32 0, i32 0
  %5 = load ptr, ptr %4, align 8, !tbaa !1594
  call void @_ZN8nanobind6detail27raise_next_overload_if_nullEPv(ptr noundef %5) #25
  %6 = getelementptr inbounds nuw %"struct.nanobind::detail::type_caster_base.878", ptr %3, i32 0, i32 0
  %7 = load ptr, ptr %6, align 8, !tbaa !1594
  ret ptr %7
}

; Function Attrs: alwaysinline mustprogress nounwind optsize uwtable
define linkonce_odr hidden noundef zeroext i1 @_ZN8nanobind6detail11type_casterIiiE11from_pythonENS_6handleEhPNS0_12cleanup_listE(ptr noundef nonnull align 4 dereferenceable(4) %0, ptr %1, i8 noundef zeroext %2, ptr noundef %3) #5 comdat align 2 {
  %5 = alloca %"class.nanobind::handle", align 8
  %6 = alloca ptr, align 8
  %7 = alloca i8, align 1
  %8 = alloca ptr, align 8
  %9 = getelementptr inbounds nuw %"class.nanobind::handle", ptr %5, i32 0, i32 0
  store ptr %1, ptr %9, align 8
  store ptr %0, ptr %6, align 8, !tbaa !448
  store i8 %2, ptr %7, align 1, !tbaa !42
  store ptr %3, ptr %8, align 8, !tbaa !426
  %10 = load ptr, ptr %6, align 8
  %11 = call noundef ptr @_ZNK8nanobind6handle3ptrEv(ptr noundef nonnull align 8 dereferenceable(8) %5) #25
  %12 = load i8, ptr %7, align 1, !tbaa !42
  %13 = getelementptr inbounds nuw %"struct.nanobind::detail::type_caster.208", ptr %10, i32 0, i32 0
  %14 = call noundef zeroext i1 @_ZN8nanobind6detail8load_i32EP7_objecthPi(ptr noundef %11, i8 noundef zeroext %12, ptr noundef %13) #24
  ret i1 %14
}

; Function Attrs: alwaysinline mustprogress nounwind optsize uwtable
define internal noundef nonnull align 4 dereferenceable(4) ptr @_ZN8nanobind6detail5tupleIJNS0_11type_casterIZL30nanobind_init_test_classes_extRNS_7module_EE12BoundDerivediEENS2_IiiEEEE3getILm1EEERDav(ptr noundef nonnull align 8 dereferenceable(16) %0) #5 align 2 {
  %2 = alloca ptr, align 8
  store ptr %0, ptr %2, align 8, !tbaa !1606
  %3 = load ptr, ptr %2, align 8
  %4 = call noundef nonnull align 4 dereferenceable(4) ptr @_ZN8nanobind6detail5tupleIJNS0_11type_casterIiiEEEE3getILm0EEERDav(ptr noundef nonnull align 4 dereferenceable(4) %3) #25
  ret ptr %4
}

; Function Attrs: alwaysinline mustprogress nounwind optsize uwtable
define internal noundef zeroext i1 @_ZN8nanobind6detail16type_caster_baseIZL30nanobind_init_test_classes_extRNS_7module_EE12BoundDerivedE11from_pythonENS_6handleEhPNS0_12cleanup_listE(ptr noundef nonnull align 8 dereferenceable(8) %0, ptr %1, i8 noundef zeroext %2, ptr noundef %3) #5 align 2 {
  %5 = alloca %"class.nanobind::handle", align 8
  %6 = alloca ptr, align 8
  %7 = alloca i8, align 1
  %8 = alloca ptr, align 8
  %9 = getelementptr inbounds nuw %"class.nanobind::handle", ptr %5, i32 0, i32 0
  store ptr %1, ptr %9, align 8
  store ptr %0, ptr %6, align 8, !tbaa !1592
  store i8 %2, ptr %7, align 1, !tbaa !42
  store ptr %3, ptr %8, align 8, !tbaa !426
  %10 = load ptr, ptr %6, align 8
  %11 = call noundef ptr @_ZNK8nanobind6handle3ptrEv(ptr noundef nonnull align 8 dereferenceable(8) %5) #25
  %12 = load i8, ptr %7, align 1, !tbaa !42
  %13 = load ptr, ptr %8, align 8, !tbaa !426
  %14 = getelementptr inbounds nuw %"struct.nanobind::detail::type_caster_base.878", ptr %10, i32 0, i32 0
  %15 = call noundef zeroext i1 @_ZN8nanobind6detail11nb_type_getEPKSt9type_infoP7_objecthPNS0_12cleanup_listEPPv(ptr noundef @_ZTIZL30nanobind_init_test_classes_extRN8nanobind7module_EE12BoundDerived, ptr noundef %11, i8 noundef zeroext %12, ptr noundef %13, ptr noundef %14) #24
  ret i1 %15
}

; Function Attrs: alwaysinline mustprogress nounwind optsize uwtable
define linkonce_odr hidden void @_ZN8nanobind6handleC2EPK7_object(ptr noundef nonnull align 8 dereferenceable(8) %0, ptr noundef %1) unnamed_addr #5 comdat align 2 {
  %3 = alloca ptr, align 8
  %4 = alloca ptr, align 8
  store ptr %0, ptr %3, align 8, !tbaa !28
  store ptr %1, ptr %4, align 8, !tbaa !21
  %5 = load ptr, ptr %3, align 8
  %6 = getelementptr inbounds nuw %"class.nanobind::handle", ptr %5, i32 0, i32 0
  %7 = load ptr, ptr %4, align 8, !tbaa !21
  store ptr %7, ptr %6, align 8, !tbaa !30
  ret void
}

; Function Attrs: alwaysinline mustprogress nounwind optsize uwtable
define internal noundef nonnull align 8 dereferenceable(8) ptr @_ZN8nanobind6detail5tupleIJNS0_11type_casterIZL30nanobind_init_test_classes_extRNS_7module_EE12BoundDerivediEENS2_IiiEEEE3getILm0EEERDav(ptr noundef nonnull align 8 dereferenceable(16) %0) #5 align 2 {
  %2 = alloca ptr, align 8
  store ptr %0, ptr %2, align 8, !tbaa !1606
  %3 = load ptr, ptr %2, align 8
  %4 = getelementptr inbounds nuw %"struct.nanobind::detail::tuple.890", ptr %3, i32 0, i32 1
  ret ptr %4
}

; Function Attrs: alwaysinline mustprogress optsize uwtable
define internal noundef ptr @_ZZN8nanobind6detail11func_createILb1ELb1EZNS_6class_IZL30nanobind_init_test_classes_extRNS_7module_EE12BoundDerivedJEE6def_rwIZL30nanobind_init_test_classes_extS4_E10HiddenBaseiJEEERS6_PKcMT_T0_DpRKT1_EUlRS5_OiE_vJSJ_SK_EJLm0ELm1EEJNS_9is_methodEEEEP7_objectOT1_PFT2_DpT3_ESt16integer_sequenceImJXspT4_EEEDpRKT5_ENKUlPvPSO_PhNS_9rv_policyEPNS0_12cleanup_listEE_clES12_S13_S14_S15_S17_(ptr noundef nonnull align 1 dereferenceable(1) %0, ptr noundef %1, ptr noundef %2, ptr noundef %3, i32 noundef %4, ptr noundef %5) #8 align 2 {
  %7 = alloca ptr, align 8
  %8 = alloca ptr, align 8
  %9 = alloca ptr, align 8
  %10 = alloca ptr, align 8
  %11 = alloca ptr, align 8
  %12 = alloca i32, align 4
  %13 = alloca ptr, align 8
  %14 = alloca ptr, align 8
  %15 = alloca %"struct.nanobind::detail::tuple.890", align 8
  %16 = alloca %"class.nanobind::handle", align 8
  %17 = alloca %"class.nanobind::handle", align 8
  %18 = alloca i32, align 4
  %19 = alloca ptr, align 8
  store ptr %0, ptr %8, align 8, !tbaa !23
  store ptr %1, ptr %9, align 8, !tbaa !23
  store ptr %2, ptr %10, align 8, !tbaa !424
  store ptr %3, ptr %11, align 8, !tbaa !116
  store i32 %4, ptr %12, align 4, !tbaa !43
  store ptr %5, ptr %13, align 8, !tbaa !426
  call void @llvm.lifetime.start.p0(i64 8, ptr %14) #2
  %20 = load ptr, ptr %9, align 8, !tbaa !23
  store ptr %20, ptr %14, align 8, !tbaa !1602
  call void @llvm.lifetime.start.p0(i64 16, ptr %15) #2
  %21 = call noundef nonnull align 8 dereferenceable(8) ptr @_ZN8nanobind6detail5tupleIJNS0_11type_casterIZL30nanobind_init_test_classes_extRNS_7module_EE12BoundDerivediEENS2_IiiEEEE3getILm0EEERDav(ptr noundef nonnull align 8 dereferenceable(16) %15) #25
  %22 = load ptr, ptr %10, align 8, !tbaa !424
  %23 = getelementptr inbounds nuw ptr, ptr %22, i64 0
  %24 = load ptr, ptr %23, align 8, !tbaa !21
  call void @_ZN8nanobind6handleC2EPK7_object(ptr noundef nonnull align 8 dereferenceable(8) %16, ptr noundef %24) #25
  %25 = load ptr, ptr %11, align 8, !tbaa !116
  %26 = getelementptr inbounds nuw i8, ptr %25, i64 0
  %27 = load i8, ptr %26, align 1, !tbaa !42
  %28 = load ptr, ptr %13, align 8, !tbaa !426
  %29 = getelementptr inbounds nuw %"class.nanobind::handle", ptr %16, i32 0, i32 0
  %30 = load ptr, ptr %29, align 8
  %31 = call noundef zeroext i1 @_ZN8nanobind6detail16type_caster_baseIZL30nanobind_init_test_classes_extRNS_7module_EE12BoundDerivedE11from_pythonENS_6handleEhPNS0_12cleanup_listE(ptr noundef nonnull align 8 dereferenceable(8) %21, ptr %30, i8 noundef zeroext %27, ptr noundef %28) #24
  br i1 %31, label %32, label %44

32:                                               ; preds = %6
  %33 = call noundef nonnull align 4 dereferenceable(4) ptr @_ZN8nanobind6detail5tupleIJNS0_11type_casterIZL30nanobind_init_test_classes_extRNS_7module_EE12BoundDerivediEENS2_IiiEEEE3getILm1EEERDav(ptr noundef nonnull align 8 dereferenceable(16) %15) #25
  %34 = load ptr, ptr %10, align 8, !tbaa !424
  %35 = getelementptr inbounds nuw ptr, ptr %34, i64 1
  %36 = load ptr, ptr %35, align 8, !tbaa !21
  call void @_ZN8nanobind6handleC2EPK7_object(ptr noundef nonnull align 8 dereferenceable(8) %17, ptr noundef %36) #25
  %37 = load ptr, ptr %11, align 8, !tbaa !116
  %38 = getelementptr inbounds nuw i8, ptr %37, i64 1
  %39 = load i8, ptr %38, align 1, !tbaa !42
  %40 = load ptr, ptr %13, align 8, !tbaa !426
  %41 = getelementptr inbounds nuw %"class.nanobind::handle", ptr %17, i32 0, i32 0
  %42 = load ptr, ptr %41, align 8
  %43 = call noundef zeroext i1 @_ZN8nanobind6detail11type_casterIiiE11from_pythonENS_6handleEhPNS0_12cleanup_listE(ptr noundef nonnull align 4 dereferenceable(4) %33, ptr %42, i8 noundef zeroext %39, ptr noundef %40) #24
  br i1 %43, label %45, label %44

44:                                               ; preds = %32, %6
  store ptr inttoptr (i64 1 to ptr), ptr %7, align 8
  store i32 1, ptr %18, align 4
  br label %54

45:                                               ; preds = %32
  call void @llvm.lifetime.start.p0(i64 8, ptr %19) #2
  %46 = load ptr, ptr %14, align 8, !tbaa !1602
  %47 = getelementptr inbounds nuw %struct.capture.887, ptr %46, i32 0, i32 0
  %48 = call noundef nonnull align 8 dereferenceable(8) ptr @_ZN8nanobind6detail5tupleIJNS0_11type_casterIZL30nanobind_init_test_classes_extRNS_7module_EE12BoundDerivediEENS2_IiiEEEE3getILm0EEERDav(ptr noundef nonnull align 8 dereferenceable(16) %15) #25
  %49 = call noundef nonnull align 8 dereferenceable(12) ptr @_ZN8nanobind6detail16type_caster_baseIZL30nanobind_init_test_classes_extRNS_7module_EE12BoundDerivedEcvRS4_Ev(ptr noundef nonnull align 8 dereferenceable(8) %48) #25
  %50 = call noundef nonnull align 4 dereferenceable(4) ptr @_ZN8nanobind6detail5tupleIJNS0_11type_casterIZL30nanobind_init_test_classes_extRNS_7module_EE12BoundDerivediEENS2_IiiEEEE3getILm1EEERDav(ptr noundef nonnull align 8 dereferenceable(16) %15) #25
  %51 = call noundef nonnull align 4 dereferenceable(4) ptr @_ZN8nanobind6detail11type_casterIiiEcvOiEv(ptr noundef nonnull align 4 dereferenceable(4) %50) #25
  call void @_ZZN8nanobind6class_IZL30nanobind_init_test_classes_extRNS_7module_EE12BoundDerivedJEE6def_rwIZL30nanobind_init_test_classes_extS2_E10HiddenBaseiJEEERS4_PKcMT_T0_DpRKT1_ENKUlRS3_OiE_clESH_SI_(ptr noundef nonnull align 8 dereferenceable(8) %47, ptr noundef nonnull align 8 dereferenceable(12) %49, ptr noundef nonnull align 4 dereferenceable(4) %51) #25
  store ptr @_Py_NoneStruct, ptr %19, align 8, !tbaa !21
  %52 = load ptr, ptr %19, align 8, !tbaa !21
  call void @_ZL10_Py_INCREFP7_object(ptr noundef %52) #25
  %53 = load ptr, ptr %19, align 8, !tbaa !21
  store ptr %53, ptr %7, align 8
  store i32 1, ptr %18, align 4
  call void @llvm.lifetime.end.p0(i64 8, ptr %19) #2
  br label %54

54:                                               ; preds = %45, %44
  call void @llvm.lifetime.end.p0(i64 16, ptr %15) #2
  call void @llvm.lifetime.end.p0(i64 8, ptr %14) #2
  %55 = load ptr, ptr %7, align 8
  ret ptr %55
}

; Function Attrs: inlinehint mustprogress optsize uwtable
define internal noundef ptr @_ZZN8nanobind6detail11func_createILb1ELb1EZNS_6class_IZL30nanobind_init_test_classes_extRNS_7module_EE12BoundDerivedJEE6def_rwIZL30nanobind_init_test_classes_extS4_E10HiddenBaseiJEEERS6_PKcMT_T0_DpRKT1_EUlRS5_OiE_vJSJ_SK_EJLm0ELm1EEJNS_9is_methodEEEEP7_objectOT1_PFT2_DpT3_ESt16integer_sequenceImJXspT4_EEEDpRKT5_ENUlPvPSO_PhNS_9rv_policyEPNS0_12cleanup_listEE_8__invokeES12_S13_S14_S15_S17_(ptr noundef %0, ptr noundef %1, ptr noundef %2, i32 noundef %3, ptr noundef %4) #14 align 2 {
  %6 = alloca ptr, align 8
  %7 = alloca ptr, align 8
  %8 = alloca ptr, align 8
  %9 = alloca i32, align 4
  %10 = alloca ptr, align 8
  %11 = alloca %class.anon.888, align 1
  store ptr %0, ptr %6, align 8, !tbaa !23
  store ptr %1, ptr %7, align 8, !tbaa !424
  store ptr %2, ptr %8, align 8, !tbaa !116
  store i32 %3, ptr %9, align 4, !tbaa !43
  store ptr %4, ptr %10, align 8, !tbaa !426
  %12 = load ptr, ptr %6, align 8, !tbaa !23
  %13 = load ptr, ptr %7, align 8, !tbaa !424
  %14 = load ptr, ptr %8, align 8, !tbaa !116
  %15 = load i32, ptr %9, align 4, !tbaa !43
  %16 = load ptr, ptr %10, align 8, !tbaa !426
  %17 = call noundef ptr @_ZZN8nanobind6detail11func_createILb1ELb1EZNS_6class_IZL30nanobind_init_test_classes_extRNS_7module_EE12BoundDerivedJEE6def_rwIZL30nanobind_init_test_classes_extS4_E10HiddenBaseiJEEERS6_PKcMT_T0_DpRKT1_EUlRS5_OiE_vJSJ_SK_EJLm0ELm1EEJNS_9is_methodEEEEP7_objectOT1_PFT2_DpT3_ESt16integer_sequenceImJXspT4_EEEDpRKT5_ENKUlPvPSO_PhNS_9rv_policyEPNS0_12cleanup_listEE_clES12_S13_S14_S15_S17_(ptr noundef nonnull align 1 dereferenceable(1) %11, ptr noundef %12, ptr noundef %13, ptr noundef %14, i32 noundef %15, ptr noundef %16) #25
  ret ptr %17
}